; Function Attrs: mustprogress uwtable
define internal void @"_ZN9grpc_core5Party15ParticipantImplINS_14promise_detail3SeqIZNS_12BatchBuilder5Batch8RefUntilINS2_3MapIZNS_5LatchIN4absl12lts_202308026StatusEE4WaitEvEUlvE_ZNS4_23ReceiveTrailingMetadataENS4_6TargetEEUlSB_E_EEEEDaT_EUlvE_JZNS_12_GLOBAL__N_121MakeServerCallPromiseEPNS_9TransportENS_8CallArgsESt8functionIFNS_12ArenaPromiseISt10unique_ptrI19grpc_metadata_batchNS_5Arena13PooledDeleterEEEESM_EEE4$_11EEEZNSJ_21MakeServerCallPromiseESL_SM_SW_E4$_12E7DestroyEv"(ptr noundef nonnull align 8 dereferenceable(80) %this) unnamed_addr #3 align 2 personality ptr @__gxx_personality_v0 {
entry:
  %0 = tail call align 8 ptr @llvm.threadlocal.address.p0(ptr align 8 @_ZN9grpc_core14promise_detail7ContextINS_5ArenaEE8current_E)
  %1 = load ptr, ptr %0, align 8
  %cmp.not.i = icmp eq ptr %1, null
  br i1 %cmp.not.i, label %if.then.i, label %_ZN9grpc_core10GetContextINS_5ArenaEEEPT_v.exit

if.then.i:                                        ; preds = %entry
  tail call void @gpr_assertion_failed(ptr noundef nonnull @.str.19, i32 noundef 80, ptr noundef nonnull @.str.20) #25
  unreachable

_ZN9grpc_core10GetContextINS_5ArenaEEEPT_v.exit:  ; preds = %entry
  %2 = getelementptr inbounds i8, ptr %this, i64 32
  tail call fastcc void @"_ZN9grpc_core14promise_detail3SeqIZNS_12BatchBuilder5Batch8RefUntilINS0_3MapIZNS_5LatchIN4absl12lts_202308026StatusEE4WaitEvEUlvE_ZNS2_23ReceiveTrailingMetadataENS2_6TargetEEUlS9_E_EEEEDaT_EUlvE_JZNS_12_GLOBAL__N_121MakeServerCallPromiseEPNS_9TransportENS_8CallArgsESt8functionIFNS_12ArenaPromiseISt10unique_ptrI19grpc_metadata_batchNS_5Arena13PooledDeleterEEEESK_EEE4$_11EED2Ev"(ptr noundef nonnull align 8 dereferenceable(40) %2) #23
  tail call void @_ZN9grpc_core5Party11ParticipantD2Ev(ptr noundef nonnull align 8 dereferenceable(32) %this) #23
  tail call void @_ZdlPv(ptr noundef nonnull %this) #26
  ret void
}